; ModuleID = '20/757.c'
source_filename = "20/757.c"
target datalayout = "e-m:e-p270:32:32-p271:32:32-p272:64:64-i64:64-f80:128-n8:16:32:64-S128"
target triple = "x86_64-pc-linux-gnu"

@.str = private unnamed_addr constant [3 x i8] c"%c\00", align 1
@.str.1 = private unnamed_addr constant [5 x i8] c"%s%s\00", align 1
@.str.2 = private unnamed_addr constant [2 x i8] c"\0A\00", align 1

; Function Attrs: noinline nounwind uwtable
define dso_local void @print(i32 %0, i32 %1, i8* %2) #0 {
  %4 = alloca i32, align 4
  %5 = alloca i32, align 4
  %6 = alloca i8*, align 8
  %7 = alloca i32, align 4
  store i32 %0, i32* %4, align 4
  store i32 %1, i32* %5, align 4
  store i8* %2, i8** %6, align 8
  %8 = load i32, i32* %4, align 4
  store i32 %8, i32* %7, align 4
  br label %9

9:                                                ; preds = %21, %3
  %10 = load i32, i32* %7, align 4
  %11 = load i32, i32* %5, align 4
  %12 = icmp sle i32 %10, %11
  br i1 %12, label %13, label %24

13:                                               ; preds = %9
  %14 = load i8*, i8** %6, align 8
  %15 = load i32, i32* %7, align 4
  %16 = sext i32 %15 to i64
  %17 = getelementptr inbounds i8, i8* %14, i64 %16
  %18 = load i8, i8* %17, align 1
  %19 = sext i8 %18 to i32
  %20 = call i32 (i8*, ...) @printf(i8* getelementptr inbounds ([3 x i8], [3 x i8]* @.str, i64 0, i64 0), i32 %19)
  br label %21

21:                                               ; preds = %13
  %22 = load i32, i32* %7, align 4
  %23 = add nsw i32 %22, 1
  store i32 %23, i32* %7, align 4
  br label %9

24:                                               ; preds = %9
  ret void
}

declare dso_local i32 @printf(i8*, ...) #1

; Function Attrs: noinline nounwind uwtable
define dso_local i32 @arrange(i8* %0) #0 {
  %2 = alloca i8*, align 8
  %3 = alloca i32, align 4
  %4 = alloca i32, align 4
  %5 = alloca i32, align 4
  %6 = alloca i32, align 4
  store i8* %0, i8** %2, align 8
  store i32 0, i32* %4, align 4
  %7 = load i8*, i8** %2, align 8
  %8 = getelementptr inbounds i8, i8* %7, i64 0
  %9 = load i8, i8* %8, align 1
  %10 = sext i8 %9 to i32
  store i32 %10, i32* %5, align 4
  %11 = load i8*, i8** %2, align 8
  %12 = call i64 @strlen(i8* %11) #3
  %13 = trunc i64 %12 to i32
  store i32 %13, i32* %6, align 4
  store i32 1, i32* %3, align 4
  br label %14

14:                                               ; preds = %36, %1
  %15 = load i32, i32* %3, align 4
  %16 = load i32, i32* %6, align 4
  %17 = icmp slt i32 %15, %16
  br i1 %17, label %18, label %39

18:                                               ; preds = %14
  %19 = load i8*, i8** %2, align 8
  %20 = load i32, i32* %3, align 4
  %21 = sext i32 %20 to i64
  %22 = getelementptr inbounds i8, i8* %19, i64 %21
  %23 = load i8, i8* %22, align 1
  %24 = sext i8 %23 to i32
  %25 = load i32, i32* %5, align 4
  %26 = icmp sgt i32 %24, %25
  br i1 %26, label %27, label %35

27:                                               ; preds = %18
  %28 = load i32, i32* %3, align 4
  store i32 %28, i32* %4, align 4
  %29 = load i8*, i8** %2, align 8
  %30 = load i32, i32* %3, align 4
  %31 = sext i32 %30 to i64
  %32 = getelementptr inbounds i8, i8* %29, i64 %31
  %33 = load i8, i8* %32, align 1
  %34 = sext i8 %33 to i32
  store i32 %34, i32* %5, align 4
  br label %35

35:                                               ; preds = %27, %18
  br label %36

36:                                               ; preds = %35
  %37 = load i32, i32* %3, align 4
  %38 = add nsw i32 %37, 1
  store i32 %38, i32* %3, align 4
  br label %14

39:                                               ; preds = %14
  %40 = load i32, i32* %4, align 4
  ret i32 %40
}

; Function Attrs: nounwind readonly
declare dso_local i64 @strlen(i8*) #2

; Function Attrs: noinline nounwind uwtable
define dso_local void @main() #0 {
  %1 = alloca [11 x i8], align 1
  %2 = alloca [4 x i8], align 1
  %3 = alloca i32, align 4
  %4 = alloca i32, align 4
  %5 = alloca i32, align 4
  br label %6

6:                                                ; preds = %11, %0
  %7 = getelementptr inbounds [11 x i8], [11 x i8]* %1, i64 0, i64 0
  %8 = getelementptr inbounds [4 x i8], [4 x i8]* %2, i64 0, i64 0
  %9 = call i32 (i8*, ...) @__isoc99_scanf(i8* getelementptr inbounds ([5 x i8], [5 x i8]* @.str.1, i64 0, i64 0), i8* %7, i8* %8)
  %10 = icmp ne i32 %9, -1
  br i1 %10, label %11, label %31

11:                                               ; preds = %6
  %12 = getelementptr inbounds [11 x i8], [11 x i8]* %1, i64 0, i64 0
  %13 = call i64 @strlen(i8* %12) #3
  %14 = trunc i64 %13 to i32
  store i32 %14, i32* %3, align 4
  %15 = getelementptr inbounds [4 x i8], [4 x i8]* %2, i64 0, i64 0
  %16 = call i64 @strlen(i8* %15) #3
  %17 = trunc i64 %16 to i32
  store i32 %17, i32* %4, align 4
  %18 = getelementptr inbounds [11 x i8], [11 x i8]* %1, i64 0, i64 0
  %19 = call i32 @arrange(i8* %18)
  store i32 %19, i32* %5, align 4
  %20 = load i32, i32* %5, align 4
  %21 = getelementptr inbounds [11 x i8], [11 x i8]* %1, i64 0, i64 0
  call void @print(i32 0, i32 %20, i8* %21)
  %22 = load i32, i32* %4, align 4
  %23 = sub nsw i32 %22, 1
  %24 = getelementptr inbounds [4 x i8], [4 x i8]* %2, i64 0, i64 0
  call void @print(i32 0, i32 %23, i8* %24)
  %25 = load i32, i32* %5, align 4
  %26 = add nsw i32 %25, 1
  %27 = load i32, i32* %3, align 4
  %28 = sub nsw i32 %27, 1
  %29 = getelementptr inbounds [11 x i8], [11 x i8]* %1, i64 0, i64 0
  call void @print(i32 %26, i32 %28, i8* %29)
  %30 = call i32 (i8*, ...) @printf(i8* getelementptr inbounds ([2 x i8], [2 x i8]* @.str.2, i64 0, i64 0))
  br label %6

31:                                               ; preds = %6
  ret void
}

declare dso_local i32 @__isoc99_scanf(i8*, ...) #1


!llvm.module.flags = !{!0}
!llvm.ident = !{!1}

!0 = !{i32 1, !"wchar_size", i32 4}
!1 = !{!"clang version 10.0.0-4ubuntu1 "}
